target datalayout = "e-m:e-p270:32:32-p271:32:32-p272:64:64-i64:64-i128:128-f80:128-n8:16:32:64-S128"
target triple = "x86_64-pc-linux-gnu"

%class.mpfx_manager = type <{ i32, i32, i32, [4 x i8], %class.svector, i32, i8, [3 x i8], %class.id_gen, %class.svector, %class.svector, %class.svector, %class.svector, %class.mpfx, [4 x i8] }>
%class.id_gen = type { i32, %class.svector }
%class.svector = type { %class.vector }
%class.vector = type { ptr }
%class.mpfx = type { i32 }

; Function Attrs: mustprogress nounwind uwtable
define linkonce_odr hidden noundef ptr @_ZNK6vectorIjLb0EjE4dataEv(ptr noundef nonnull align 8 dereferenceable(8) %0) #5 comdat align 2 {
  %2 = alloca ptr, align 8
  store ptr %0, ptr %2, align 8, !tbaa !30
  %3 = load ptr, ptr %2, align 8
  %4 = getelementptr inbounds nuw %class.vector, ptr %3, i32 0, i32 0
  %5 = load ptr, ptr %4, align 8, !tbaa !34
  ret ptr %5
}

; Function Attrs: mustprogress nounwind uwtable
define linkonce_odr hidden noundef zeroext i1 @_ZN12mpfx_manager6is_negERK4mpfx(ptr noundef nonnull align 4 dereferenceable(4) %0) #5 comdat align 2 {
  %2 = alloca ptr, align 8
  store ptr %0, ptr %2, align 8, !tbaa !28
  %3 = load ptr, ptr %2, align 8, !tbaa !28
  %4 = load i32, ptr %3, align 4
  %5 = and i32 %4, 1
  %6 = icmp ne i32 %5, 0
  ret i1 %6
}

; Function Attrs: mustprogress uwtable
define linkonce_odr hidden noundef ptr @_ZNK12mpfx_manager5wordsERK4mpfx(ptr noundef nonnull align 8 dereferenceable(85) %0, ptr noundef nonnull align 4 dereferenceable(4) %1) #4 comdat align 2 {
  %3 = alloca ptr, align 8
  %4 = alloca ptr, align 8
  store ptr %0, ptr %3, align 8, !tbaa !3
  store ptr %1, ptr %4, align 8, !tbaa !28
  %5 = load ptr, ptr %3, align 8
  %6 = getelementptr inbounds nuw %class.mpfx_manager, ptr %5, i32 0, i32 4
  %7 = call noundef ptr @_ZNK6vectorIjLb0EjE4dataEv(ptr noundef nonnull align 8 dereferenceable(8) %6)
  %8 = load ptr, ptr %4, align 8, !tbaa !28
  %9 = load i32, ptr %8, align 4
  %10 = lshr i32 %9, 1
  %11 = getelementptr inbounds nuw %class.mpfx_manager, ptr %5, i32 0, i32 2
  %12 = load i32, ptr %11, align 8, !tbaa !20
  %13 = mul i32 %10, %12
  %14 = zext i32 %13 to i64
  %15 = getelementptr inbounds nuw i32, ptr %7, i64 %14
  ret ptr %15
}

; Function Attrs: mustprogress uwtable
define hidden noundef i64 @_ZNK12mpfx_manager9get_int64ERK4mpfx(ptr noundef nonnull align 8 dereferenceable(85) %0, ptr noundef nonnull align 4 dereferenceable(4) %1) #4 align 2 {
  %3 = alloca i64, align 8
  %4 = alloca ptr, align 8
  %5 = alloca ptr, align 8
  %6 = alloca ptr, align 8
  %7 = alloca i64, align 8
  %8 = alloca i32, align 4
  store ptr %0, ptr %4, align 8, !tbaa !3
  store ptr %1, ptr %5, align 8, !tbaa !28
  %9 = load ptr, ptr %4, align 8
  call void @llvm.lifetime.start.p0(i64 8, ptr %6) #3
  %10 = load ptr, ptr %5, align 8, !tbaa !28
  %11 = call noundef ptr @_ZNK12mpfx_manager5wordsERK4mpfx(ptr noundef nonnull align 8 dereferenceable(85) %9, ptr noundef nonnull align 4 dereferenceable(4) %10)
  store ptr %11, ptr %6, align 8, !tbaa !35
  %12 = getelementptr inbounds nuw %class.mpfx_manager, ptr %9, i32 0, i32 1
  %13 = load i32, ptr %12, align 4, !tbaa !19
  %14 = load ptr, ptr %6, align 8, !tbaa !35
  %15 = zext i32 %13 to i64
  %16 = getelementptr inbounds nuw i32, ptr %14, i64 %15
  store ptr %16, ptr %6, align 8, !tbaa !35
  call void @llvm.lifetime.start.p0(i64 8, ptr %7) #3
  store i64 0, ptr %7, align 8, !tbaa !44
  %17 = load ptr, ptr %6, align 8, !tbaa !35
  call void @llvm.memcpy.p0.p0.i64(ptr align 8 %7, ptr align 4 %17, i64 8, i1 false)
  %18 = load i64, ptr %7, align 8, !tbaa !44
  %19 = icmp eq i64 %18, -9223372036854775808
  br i1 %19, label %20, label %21

20:                                               ; preds = %2
  store i64 -9223372036854775808, ptr %3, align 8
  store i32 1, ptr %8, align 4
  br label %31

21:                                               ; preds = %2
  %22 = load ptr, ptr %5, align 8, !tbaa !28
  %23 = call noundef zeroext i1 @_ZN12mpfx_manager6is_negERK4mpfx(ptr noundef nonnull align 4 dereferenceable(4) %22)
  br i1 %23, label %24, label %27

24:                                               ; preds = %21
  %25 = load i64, ptr %7, align 8, !tbaa !44
  %26 = sub nsw i64 0, %25
  br label %29

27:                                               ; preds = %21
  %28 = load i64, ptr %7, align 8, !tbaa !44
  br label %29

29:                                               ; preds = %27, %24
  %30 = phi i64 [ %26, %24 ], [ %28, %27 ]
  store i64 %30, ptr %3, align 8
  store i32 1, ptr %8, align 4
  br label %31

31:                                               ; preds = %29, %20
  call void @llvm.lifetime.end.p0(i64 8, ptr %7) #3
  call void @llvm.lifetime.end.p0(i64 8, ptr %6) #3
  %32 = load i64, ptr %3, align 8
  ret i64 %32
}