; Function Attrs: mustprogress nofree norecurse nosync nounwind willreturn memory(read, inaccessiblemem: none) uwtable
define hidden noundef i64 @_ZNK12mpfx_manager9get_int64ERK4mpfx(ptr noundef nonnull readonly align 8 captures(none) dereferenceable(85) %0, ptr noundef nonnull readonly align 4 captures(none) dereferenceable(4) %1) local_unnamed_addr #10 align 2 {
  %3 = getelementptr inbounds nuw i8, ptr %0, i64 16
  %4 = load ptr, ptr %3, align 8, !tbaa !3
  %5 = load i32, ptr %1, align 4
  %6 = lshr i32 %5, 1
  %7 = getelementptr inbounds nuw i8, ptr %0, i64 8
  %8 = load i32, ptr %7, align 8, !tbaa !19
  %9 = mul i32 %6, %8
  %10 = zext i32 %9 to i64
  %11 = getelementptr inbounds nuw i32, ptr %4, i64 %10
  %12 = getelementptr inbounds nuw i8, ptr %0, i64 4
  %13 = load i32, ptr %12, align 4, !tbaa !18
  %14 = zext i32 %13 to i64
  %15 = getelementptr inbounds nuw i32, ptr %11, i64 %14
  %.0.copyload = load i64, ptr %15, align 4
  %16 = icmp eq i64 %.0.copyload, -9223372036854775808
  %17 = and i32 %5, 1
  %.not = icmp eq i32 %17, 0
  %18 = sub nsw i64 0, %.0.copyload
  %19 = select i1 %.not, i64 %.0.copyload, i64 %18
  %.0 = select i1 %16, i64 -9223372036854775808, i64 %19
  ret i64 %.0
}